; ModuleID = 'bench/libwebp/original/wicdec.ll'
source_filename = "bench/libwebp/original/wicdec.ll"
target datalayout = "e-m:e-p270:32:32-p271:32:32-p272:64:64-i64:64-i128:128-f80:128-n8:16:32:64-S128"
target triple = "x86_64-pc-linux-gnu"

@stderr = external local_unnamed_addr global ptr, align 8
@.str = private unnamed_addr constant [221 x i8] c"Windows Imaging Component (WIC) support not compiled. Visual Studio and mingw-w64 builds support WIC. Make sure wincodec.h detection is working correctly if using autoconf and HAVE_WINCODEC_H is defined before building.\0A\00", align 1

; Function Attrs: cold nofree nounwind uwtable
define hidden noundef i32 @ReadPictureWithWIC(ptr noundef readnone captures(none) %0, ptr noundef readnone captures(none) %1, i32 noundef %2, ptr noundef readnone captures(none) %3) local_unnamed_addr #0 {
  %5 = load ptr, ptr @stderr, align 8, !tbaa !4
  %6 = tail call i64 @fwrite(ptr nonnull @.str, i64 220, i64 1, ptr %5) #2
  ret i32 0
}

; Function Attrs: nofree nounwind
declare noundef i64 @fwrite(ptr noundef captures(none), i64 noundef, i64 noundef, ptr noundef captures(none)) local_unnamed_addr #1


!llvm.module.flags = !{!0, !1, !2, !3}

!0 = !{i32 1, !"wchar_size", i32 4}
!1 = !{i32 8, !"PIC Level", i32 2}
!2 = !{i32 7, !"PIE Level", i32 2}
!3 = !{i32 7, !"uwtable", i32 2}
!4 = !{!5, !5, i64 0}
!5 = !{!"p1 _ZTS8_IO_FILE", !6, i64 0}
!6 = !{!"any pointer", !7, i64 0}
!7 = !{!"omnipotent char", !8, i64 0}
!8 = !{!"Simple C/C++ TBAA"}
